target datalayout = "e-m:e-p270:32:32-p271:32:32-p272:64:64-i64:64-i128:128-f80:128-n8:16:32:64-S128"
target triple = "x86_64-unknown-linux-gnu"

%"class.sat::literal" = type { i32 }
%class.symbol = type { ptr }
%"class.euf::th_solver" = type { %"class.sat::extension", %"class.euf::th_model_builder", %"class.euf::th_decompile", %"class.euf::th_internalizer", ptr }
%"class.sat::extension" = type { ptr, i8, i32, %class.symbol, ptr }
%"class.euf::th_model_builder" = type { ptr }
%"class.euf::th_decompile" = type { ptr }
%"class.euf::th_internalizer" = type { ptr, %class.ptr_vector, %class.svector }
%class.svector = type { %class.vector.0 }
%class.vector.0 = type { ptr }
%class.ptr_vector = type { %class.vector }
%class.vector = type { ptr }
%class.svector.1 = type { %class.vector.2 }
%class.vector.2 = type { ptr }
%"class.euf::th_euf_solver" = type <{ %"class.euf::th_solver", ptr, %class.ptr_vector, %class.svector.1, i32, [4 x i8] }>
%"class.sat::constraint_base" = type { ptr, [0 x i32] }

; Function Attrs: mustprogress nounwind uwtable
define linkonce_odr hidden noundef ptr @_ZN3sat15constraint_base3memEv(ptr noundef nonnull align 8 dereferenceable(8) %this) #4 comdat align 2 {
entry:
  %this.addr = alloca ptr, align 8
  store ptr %this, ptr %this.addr, align 8
  %this1 = load ptr, ptr %this.addr, align 8
  %m_mem = getelementptr inbounds %"class.sat::constraint_base", ptr %this1, i32 0, i32 1
  %arraydecay = getelementptr inbounds [0 x i32], ptr %m_mem, i64 0, i64 0
  ret ptr %arraydecay
}

; Function Attrs: mustprogress nounwind uwtable
define linkonce_odr hidden noundef ptr @_ZN3sat15constraint_base10from_indexEm(i64 noundef %s) #4 comdat align 2 {
entry:
  %s.addr = alloca i64, align 8
  store i64 %s, ptr %s.addr, align 8
  %0 = load i64, ptr %s.addr, align 8
  %1 = inttoptr i64 %0 to ptr
  ret ptr %1
}

; Function Attrs: mustprogress uwtable
define linkonce_odr hidden noundef nonnull align 8 dereferenceable(56) ptr @_ZN3euf10th_explain10from_indexEm(i64 noundef %idx) #5 comdat align 2 {
entry:
  %idx.addr = alloca i64, align 8
  store i64 %idx, ptr %idx.addr, align 8
  %0 = load i64, ptr %idx.addr, align 8
  %call = call noundef ptr @_ZN3sat15constraint_base10from_indexEm(i64 noundef %0)
  %call1 = call noundef ptr @_ZN3sat15constraint_base3memEv(ptr noundef nonnull align 8 dereferenceable(8) %call)
  ret ptr %call1
}

; Function Attrs: mustprogress uwtable
define hidden void @_ZN5arith6solver15get_antecedentsEN3sat7literalEmR7svectorIS2_jEb(ptr noundef nonnull align 8 dereferenceable(1144) %this, i32 %l.coerce, i64 noundef %idx, ptr noundef nonnull align 8 dereferenceable(8) %r, i1 noundef zeroext %probing) unnamed_addr #5 align 2 {
entry:
  %l = alloca %"class.sat::literal", align 4
  %this.addr = alloca ptr, align 8
  %idx.addr = alloca i64, align 8
  %r.addr = alloca ptr, align 8
  %probing.addr = alloca i8, align 1
  %jst = alloca ptr, align 8
  %agg.tmp = alloca %"class.sat::literal", align 4
  %coerce.dive = getelementptr inbounds %"class.sat::literal", ptr %l, i32 0, i32 0
  store i32 %l.coerce, ptr %coerce.dive, align 4
  store ptr %this, ptr %this.addr, align 8
  store i64 %idx, ptr %idx.addr, align 8
  store ptr %r, ptr %r.addr, align 8
  %frombool = zext i1 %probing to i8
  store i8 %frombool, ptr %probing.addr, align 1
  %this1 = load ptr, ptr %this.addr, align 8
  %0 = load i64, ptr %idx.addr, align 8
  %call = call noundef nonnull align 8 dereferenceable(56) ptr @_ZN3euf10th_explain10from_indexEm(i64 noundef %0)
  store ptr %call, ptr %jst, align 8
  %ctx = getelementptr inbounds %"class.euf::th_euf_solver", ptr %this1, i32 0, i32 1
  %1 = load ptr, ptr %ctx, align 8
  call void @llvm.memcpy.p0.p0.i64(ptr align 4 %agg.tmp, ptr align 4 %l, i64 4, i1 false)
  %2 = load ptr, ptr %jst, align 8
  %3 = load ptr, ptr %r.addr, align 8
  %4 = load i8, ptr %probing.addr, align 1
  %tobool = trunc i8 %4 to i1
  %coerce.dive2 = getelementptr inbounds %"class.sat::literal", ptr %agg.tmp, i32 0, i32 0
  %5 = load i32, ptr %coerce.dive2, align 4
  call void @_ZN3euf6solver18get_th_antecedentsEN3sat7literalERNS_10th_explainER7svectorIS2_jEb(ptr noundef nonnull align 8 dereferenceable(9136) %1, i32 %5, ptr noundef nonnull align 8 dereferenceable(56) %2, ptr noundef nonnull align 8 dereferenceable(8) %3, i1 noundef zeroext %tobool)
  ret void
}