; Function Attrs: mustprogress uwtable
define hidden void @_ZN5arith6solver15get_antecedentsEN3sat7literalEmR7svectorIS2_jEb(ptr nocapture noundef nonnull readonly align 8 dereferenceable(1144) %this, i32 %l.coerce, i64 noundef %idx, ptr noundef nonnull align 8 dereferenceable(8) %r, i1 noundef zeroext %probing) unnamed_addr #3 align 2 {
entry:
  %0 = inttoptr i64 %idx to ptr
  %m_mem.i.i = getelementptr inbounds i8, ptr %0, i64 8
  %ctx = getelementptr inbounds i8, ptr %this, i64 80
  %1 = load ptr, ptr %ctx, align 8
  tail call void @_ZN3euf6solver18get_th_antecedentsEN3sat7literalERNS_10th_explainER7svectorIS2_jEb(ptr noundef nonnull align 8 dereferenceable(9136) %1, i32 %l.coerce, ptr noundef nonnull align 8 dereferenceable(56) %m_mem.i.i, ptr noundef nonnull align 8 dereferenceable(8) %r, i1 noundef zeroext %probing)
  ret void
}